target datalayout = "e-m:e-p270:32:32-p271:32:32-p272:64:64-i64:64-i128:128-f80:128-n8:16:32:64-S128"
target triple = "x86_64-unknown-linux-gnu"

; Function Attrs: mustprogress uwtable
define void @_ZN8QuantLib19QuantoBarrierOptionC2ENS_7Barrier4TypeEddRKN5boost10shared_ptrINS_17StrikedTypePayoffEEERKNS4_INS_8ExerciseEEE(ptr noundef nonnull align 8 dereferenceable(272) %this, ptr noundef %vtt, i32 noundef %barrierType, double noundef %barrier, double noundef %rebate, ptr noundef nonnull align 1 %payoff, ptr noundef nonnull align 8 dereferenceable(16) %exercise) unnamed_addr #2 align 2 {
entry:
  %this.addr = alloca ptr, align 8
  %vtt.addr = alloca ptr, align 8
  %barrierType.addr = alloca i32, align 4
  %barrier.addr = alloca double, align 8
  %rebate.addr = alloca double, align 8
  %payoff.addr = alloca ptr, align 8
  %exercise.addr = alloca ptr, align 8
  store ptr %this, ptr %this.addr, align 8, !tbaa !3
  store ptr %vtt, ptr %vtt.addr, align 8, !tbaa !3
  store i32 %barrierType, ptr %barrierType.addr, align 4, !tbaa !24
  store double %barrier, ptr %barrier.addr, align 8, !tbaa !26
  store double %rebate, ptr %rebate.addr, align 8, !tbaa !26
  store ptr %payoff, ptr %payoff.addr, align 8, !tbaa !3
  store ptr %exercise, ptr %exercise.addr, align 8, !tbaa !3
  %this1 = load ptr, ptr %this.addr, align 8
  %vtt2 = load ptr, ptr %vtt.addr, align 8
  %0 = load i32, ptr %barrierType.addr, align 4, !tbaa !24
  %1 = load double, ptr %barrier.addr, align 8, !tbaa !26
  %2 = load double, ptr %rebate.addr, align 8, !tbaa !26
  %3 = load ptr, ptr %payoff.addr, align 8, !tbaa !3
  %4 = load ptr, ptr %exercise.addr, align 8, !tbaa !3
  %5 = getelementptr inbounds ptr, ptr %vtt2, i64 1
  call void @_ZN8QuantLib13BarrierOptionC2ENS_7Barrier4TypeEddRKN5boost10shared_ptrINS_17StrikedTypePayoffEEERKNS4_INS_8ExerciseEEE(ptr noundef nonnull align 8 dereferenceable(248) %this1, ptr noundef %5, i32 noundef %0, double noundef %1, double noundef %2, ptr noundef nonnull align 1 %3, ptr noundef nonnull align 8 dereferenceable(16) %4)
  %6 = load ptr, ptr %vtt2, align 8
  store ptr %6, ptr %this1, align 8, !tbaa !20
  %7 = getelementptr inbounds ptr, ptr %vtt2, i64 16
  %8 = load ptr, ptr %7, align 8
  %vtable = load ptr, ptr %this1, align 8, !tbaa !20
  %vbase.offset.ptr = getelementptr i8, ptr %vtable, i64 -24
  %vbase.offset = load i64, ptr %vbase.offset.ptr, align 8
  %add.ptr = getelementptr inbounds i8, ptr %this1, i64 %vbase.offset
  store ptr %8, ptr %add.ptr, align 8, !tbaa !20
  %9 = getelementptr inbounds ptr, ptr %vtt2, i64 17
  %10 = load ptr, ptr %9, align 8
  %vtable3 = load ptr, ptr %this1, align 8, !tbaa !20
  %vbase.offset.ptr4 = getelementptr i8, ptr %vtable3, i64 -32
  %vbase.offset5 = load i64, ptr %vbase.offset.ptr4, align 8
  %add.ptr6 = getelementptr inbounds i8, ptr %this1, i64 %vbase.offset5
  store ptr %10, ptr %add.ptr6, align 8, !tbaa !20
  ret void
}