; Function Attrs: mustprogress uwtable
define void @_ZN8QuantLib19QuantoBarrierOptionC2ENS_7Barrier4TypeEddRKN5boost10shared_ptrINS_17StrikedTypePayoffEEERKNS4_INS_8ExerciseEEE(ptr noundef nonnull align 8 dereferenceable(272) %this, ptr noundef %vtt, i32 noundef %barrierType, double noundef %barrier, double noundef %rebate, ptr noundef nonnull align 1 %payoff, ptr noundef nonnull align 8 dereferenceable(16) %exercise) unnamed_addr #9 align 2 {
entry:
  %0 = getelementptr inbounds i8, ptr %vtt, i64 8
  tail call void @_ZN8QuantLib13BarrierOptionC2ENS_7Barrier4TypeEddRKN5boost10shared_ptrINS_17StrikedTypePayoffEEERKNS4_INS_8ExerciseEEE(ptr noundef nonnull align 8 dereferenceable(248) %this, ptr noundef nonnull %0, i32 noundef %barrierType, double noundef %barrier, double noundef %rebate, ptr noundef nonnull align 1 %payoff, ptr noundef nonnull align 8 dereferenceable(16) %exercise)
  %1 = load ptr, ptr %vtt, align 8
  store ptr %1, ptr %this, align 8, !tbaa !33
  %2 = getelementptr inbounds i8, ptr %vtt, i64 128
  %3 = load ptr, ptr %2, align 8
  %vbase.offset.ptr = getelementptr i8, ptr %1, i64 -24
  %vbase.offset = load i64, ptr %vbase.offset.ptr, align 8
  %add.ptr = getelementptr inbounds i8, ptr %this, i64 %vbase.offset
  store ptr %3, ptr %add.ptr, align 8, !tbaa !33
  %4 = getelementptr inbounds i8, ptr %vtt, i64 136
  %5 = load ptr, ptr %4, align 8
  %vtable3 = load ptr, ptr %this, align 8, !tbaa !33
  %vbase.offset.ptr4 = getelementptr i8, ptr %vtable3, i64 -32
  %vbase.offset5 = load i64, ptr %vbase.offset.ptr4, align 8
  %add.ptr6 = getelementptr inbounds i8, ptr %this, i64 %vbase.offset5
  store ptr %5, ptr %add.ptr6, align 8, !tbaa !33
  ret void
}